target datalayout = "e-m:e-p270:32:32-p271:32:32-p272:64:64-i64:64-i128:128-f80:128-n8:16:32:64-S128"
target triple = "x86_64-pc-linux-gnu"

%struct.jv_parser = type { ptr, i32, i32, i32, i32, i32, i32, ptr, i32, i32, %struct.jv, i32, %struct.jv, %struct.jv, ptr, i32, i32, i32, i32, %struct.dtoa_context, i32, i8 }
%struct.jv = type { i8, i8, i16, i32, %union.anon }
%union.anon = type { ptr }
%struct.dtoa_context = type { [8 x ptr], ptr }

@UTF8_BOM = internal constant [3 x i8] c"\EF\BB\BF", align 1

; Function Attrs: nounwind uwtable
define dso_local void @jv_parser_set_buf(ptr noundef %0, ptr noundef %1, i32 noundef %2, i32 noundef %3) #0 {
  %5 = alloca ptr, align 8
  %6 = alloca ptr, align 8
  %7 = alloca i32, align 4
  %8 = alloca i32, align 4
  store ptr %0, ptr %5, align 8, !tbaa !8
  store ptr %1, ptr %6, align 8, !tbaa !37
  store i32 %2, ptr %7, align 4, !tbaa !4
  store i32 %3, ptr %8, align 4, !tbaa !4
  br label %9

9:                                                ; preds = %53, %4
  %10 = load i32, ptr %7, align 4, !tbaa !4
  %11 = icmp sgt i32 %10, 0
  br i1 %11, label %12, label %18

12:                                               ; preds = %9
  %13 = load ptr, ptr %5, align 8, !tbaa !8
  %14 = getelementptr inbounds nuw %struct.jv_parser, ptr %13, i32 0, i32 5
  %15 = load i32, ptr %14, align 8, !tbaa !34
  %16 = zext i32 %15 to i64
  %17 = icmp ult i64 %16, 3
  br label %18

18:                                               ; preds = %12, %9
  %19 = phi i1 [ false, %9 ], [ %17, %12 ]
  br i1 %19, label %20, label %54

20:                                               ; preds = %18
  %21 = load ptr, ptr %6, align 8, !tbaa !37
  %22 = load i8, ptr %21, align 1, !tbaa !19
  %23 = zext i8 %22 to i32
  %24 = load ptr, ptr %5, align 8, !tbaa !8
  %25 = getelementptr inbounds nuw %struct.jv_parser, ptr %24, i32 0, i32 5
  %26 = load i32, ptr %25, align 8, !tbaa !34
  %27 = zext i32 %26 to i64
  %28 = getelementptr inbounds nuw [3 x i8], ptr @UTF8_BOM, i64 0, i64 %27
  %29 = load i8, ptr %28, align 1, !tbaa !19
  %30 = zext i8 %29 to i32
  %31 = icmp eq i32 %23, %30
  br i1 %31, label %32, label %41

32:                                               ; preds = %20
  %33 = load ptr, ptr %6, align 8, !tbaa !37
  %34 = getelementptr inbounds nuw i8, ptr %33, i32 1
  store ptr %34, ptr %6, align 8, !tbaa !37
  %35 = load i32, ptr %7, align 4, !tbaa !4
  %36 = add nsw i32 %35, -1
  store i32 %36, ptr %7, align 4, !tbaa !4
  %37 = load ptr, ptr %5, align 8, !tbaa !8
  %38 = getelementptr inbounds nuw %struct.jv_parser, ptr %37, i32 0, i32 5
  %39 = load i32, ptr %38, align 8, !tbaa !34
  %40 = add i32 %39, 1
  store i32 %40, ptr %38, align 8, !tbaa !34
  br label %53

41:                                               ; preds = %20
  %42 = load ptr, ptr %5, align 8, !tbaa !8
  %43 = getelementptr inbounds nuw %struct.jv_parser, ptr %42, i32 0, i32 5
  %44 = load i32, ptr %43, align 8, !tbaa !34
  %45 = icmp eq i32 %44, 0
  br i1 %45, label %46, label %49

46:                                               ; preds = %41
  %47 = load ptr, ptr %5, align 8, !tbaa !8
  %48 = getelementptr inbounds nuw %struct.jv_parser, ptr %47, i32 0, i32 5
  store i32 3, ptr %48, align 8, !tbaa !34
  br label %52

49:                                               ; preds = %41
  %50 = load ptr, ptr %5, align 8, !tbaa !8
  %51 = getelementptr inbounds nuw %struct.jv_parser, ptr %50, i32 0, i32 5
  store i32 255, ptr %51, align 8, !tbaa !34
  br label %52

52:                                               ; preds = %49, %46
  br label %53

53:                                               ; preds = %52, %32
  br label %9, !llvm.loop !38

54:                                               ; preds = %18
  %55 = load ptr, ptr %6, align 8, !tbaa !37
  %56 = load ptr, ptr %5, align 8, !tbaa !8
  %57 = getelementptr inbounds nuw %struct.jv_parser, ptr %56, i32 0, i32 0
  store ptr %55, ptr %57, align 8, !tbaa !30
  %58 = load i32, ptr %7, align 4, !tbaa !4
  %59 = load ptr, ptr %5, align 8, !tbaa !8
  %60 = getelementptr inbounds nuw %struct.jv_parser, ptr %59, i32 0, i32 1
  store i32 %58, ptr %60, align 8, !tbaa !33
  %61 = load ptr, ptr %5, align 8, !tbaa !8
  %62 = getelementptr inbounds nuw %struct.jv_parser, ptr %61, i32 0, i32 2
  store i32 0, ptr %62, align 4, !tbaa !32
  %63 = load i32, ptr %8, align 4, !tbaa !4
  %64 = load ptr, ptr %5, align 8, !tbaa !8
  %65 = getelementptr inbounds nuw %struct.jv_parser, ptr %64, i32 0, i32 3
  store i32 %63, ptr %65, align 8, !tbaa !31
  ret void
}