; Function Attrs: nofree norecurse nosync nounwind memory(argmem: readwrite) uwtable
define dso_local void @jv_parser_set_buf(ptr noundef captures(none) %0, ptr noundef %1, i32 noundef %2, i32 noundef %3) local_unnamed_addr #4 {
  %5 = getelementptr inbounds nuw i8, ptr %0, i64 24
  %6 = icmp sgt i32 %2, 0
  br i1 %6, label %.lr.ph, label %.critedge

.lr.ph:                                           ; preds = %4
  %.promoted = load i32, ptr %5, align 8, !tbaa !25
  br label %7

7:                                                ; preds = %.lr.ph, %10
  %8 = phi i32 [ %.promoted, %.lr.ph ], [ %.sink, %10 ]
  %.020 = phi ptr [ %1, %.lr.ph ], [ %.1, %10 ]
  %.01619 = phi i32 [ %2, %.lr.ph ], [ %.117, %10 ]
  %9 = icmp ult i32 %8, 3
  br i1 %9, label %10, label %.critedge

10:                                               ; preds = %7
  %11 = zext nneg i32 %8 to i64
  %12 = load i8, ptr %.020, align 1, !tbaa !15
  %13 = getelementptr inbounds nuw [3 x i8], ptr @UTF8_BOM, i64 0, i64 %11
  %14 = load i8, ptr %13, align 1, !tbaa !15
  %15 = icmp eq i8 %12, %14
  %16 = add nuw nsw i32 %8, 1
  %17 = icmp eq i32 %8, 0
  %. = select i1 %17, i32 3, i32 255
  %.sink = select i1 %15, i32 %16, i32 %.
  %18 = sext i1 %15 to i32
  %.117 = add nsw i32 %.01619, %18
  %.1.idx = zext i1 %15 to i64
  %.1 = getelementptr inbounds nuw i8, ptr %.020, i64 %.1.idx
  store i32 %.sink, ptr %5, align 8, !tbaa !25
  %19 = icmp sgt i32 %.117, 0
  br i1 %19, label %7, label %.critedge, !llvm.loop !26

.critedge:                                        ; preds = %7, %10, %4
  %.016.lcssa = phi i32 [ %2, %4 ], [ %.117, %10 ], [ %.01619, %7 ]
  %.0.lcssa = phi ptr [ %1, %4 ], [ %.1, %10 ], [ %.020, %7 ]
  store ptr %.0.lcssa, ptr %0, align 8, !tbaa !22
  %20 = getelementptr inbounds nuw i8, ptr %0, i64 8
  store i32 %.016.lcssa, ptr %20, align 8, !tbaa !23
  %21 = getelementptr inbounds nuw i8, ptr %0, i64 12
  store i32 0, ptr %21, align 4, !tbaa !24
  %22 = getelementptr inbounds nuw i8, ptr %0, i64 16
  store i32 %3, ptr %22, align 8, !tbaa !28
  ret void
}